target datalayout = "e-m:e-p270:32:32-p271:32:32-p272:64:64-i64:64-i128:128-f80:128-n8:16:32:64-S128"
target triple = "x86_64-pc-linux-gnu"

%struct.IDAMemRec = type { ptr, double, ptr, ptr, i32, double, double, ptr, i32, i32, ptr, ptr, i32, i32, [6 x ptr], [6 x double], [6 x double], [6 x double], [6 x double], [6 x double], ptr, ptr, ptr, ptr, ptr, ptr, ptr, ptr, ptr, ptr, ptr, ptr, ptr, ptr, ptr, ptr, ptr, double, ptr, ptr, i32, i32, i32, i32, i32, i32, i32, i32, double, double, double, i32, double, i32, i32, i32, i32, i32, double, double, double, double, double, double, double, double, double, double, double, double, double, double, double, double, i32, i32, i32, i32, i64, double, double, double, double, double, double, double, double, double, i64, i64, i64, i64, i64, i64, i64, i64, i64, i64, i64, double, i32, i32, i32, i32, i32, ptr, i32, ptr, ptr, ptr, ptr, ptr, ptr, ptr, double, i32, ptr, i32, ptr, ptr, double, double, double, ptr, ptr, ptr, double, double, i32, i32, i64, ptr, i32, [6 x double], [5 x double], [6 x ptr], [6 x ptr] }

@.str = private unnamed_addr constant [109 x i8] c"generated/home/dtcxzyw/WorkSpace/Projects/compilers/llvm-opt-benchmark/bench/sundials/sundials/src/ida/ida.c\00", align 1
@.str.3 = private unnamed_addr constant [24 x i8] c"ida_mem = NULL illegal.\00", align 1
@.str.4 = private unnamed_addr constant [19 x i8] c"y0 = NULL illegal.\00", align 1
@.str.5 = private unnamed_addr constant [20 x i8] c"yp0 = NULL illegal.\00", align 1
@__func__.IDAReInit = private unnamed_addr constant [10 x i8] c"IDAReInit\00", align 1
@.str.9 = private unnamed_addr constant [34 x i8] c"Attempt to call before IDAMalloc.\00", align 1

; Function Attrs: nounwind uwtable
define i32 @IDAReInit(ptr noundef %0, double noundef %1, ptr noundef %2, ptr noundef %3) #0 {
  %5 = alloca i32, align 4
  %6 = alloca ptr, align 8
  %7 = alloca double, align 8
  %8 = alloca ptr, align 8
  %9 = alloca ptr, align 8
  %10 = alloca ptr, align 8
  %11 = alloca i32, align 4
  store ptr %0, ptr %6, align 8, !tbaa !73
  store double %1, ptr %7, align 8, !tbaa !74
  store ptr %2, ptr %8, align 8, !tbaa !75
  store ptr %3, ptr %9, align 8, !tbaa !75
  call void @llvm.lifetime.start.p0(i64 8, ptr %10) #10
  %12 = load ptr, ptr %6, align 8, !tbaa !73
  %13 = icmp eq ptr %12, null
  br i1 %13, label %14, label %15

14:                                               ; preds = %4
  call void (ptr, i32, i32, ptr, ptr, ptr, ...) @IDAProcessError(ptr noundef null, i32 noundef -20, i32 noundef 573, ptr noundef @__func__.IDAReInit, ptr noundef @.str, ptr noundef @.str.3)
  store i32 -20, ptr %5, align 4
  store i32 1, ptr %11, align 4
  br label %73

15:                                               ; preds = %4
  %16 = load ptr, ptr %6, align 8, !tbaa !73
  store ptr %16, ptr %10, align 8, !tbaa !8
  %17 = load ptr, ptr %10, align 8, !tbaa !8
  %18 = getelementptr inbounds nuw %struct.IDAMemRec, ptr %17, i32 0, i32 104
  %19 = load i32, ptr %18, align 8, !tbaa !61
  %20 = icmp eq i32 %19, 0
  br i1 %20, label %21, label %23

21:                                               ; preds = %15
  %22 = load ptr, ptr %10, align 8, !tbaa !8
  call void (ptr, i32, i32, ptr, ptr, ptr, ...) @IDAProcessError(ptr noundef %22, i32 noundef -23, i32 noundef 584, ptr noundef @__func__.IDAReInit, ptr noundef @.str, ptr noundef @.str.9)
  store i32 -23, ptr %5, align 4
  store i32 1, ptr %11, align 4
  br label %73

23:                                               ; preds = %15
  %24 = load ptr, ptr %8, align 8, !tbaa !75
  %25 = icmp eq ptr %24, null
  br i1 %25, label %26, label %28

26:                                               ; preds = %23
  %27 = load ptr, ptr %10, align 8, !tbaa !8
  call void (ptr, i32, i32, ptr, ptr, ptr, ...) @IDAProcessError(ptr noundef %27, i32 noundef -22, i32 noundef 594, ptr noundef @__func__.IDAReInit, ptr noundef @.str, ptr noundef @.str.4)
  store i32 -22, ptr %5, align 4
  store i32 1, ptr %11, align 4
  br label %73

28:                                               ; preds = %23
  %29 = load ptr, ptr %9, align 8, !tbaa !75
  %30 = icmp eq ptr %29, null
  br i1 %30, label %31, label %33

31:                                               ; preds = %28
  %32 = load ptr, ptr %10, align 8, !tbaa !8
  call void (ptr, i32, i32, ptr, ptr, ptr, ...) @IDAProcessError(ptr noundef %32, i32 noundef -22, i32 noundef 602, ptr noundef @__func__.IDAReInit, ptr noundef @.str, ptr noundef @.str.5)
  store i32 -22, ptr %5, align 4
  store i32 1, ptr %11, align 4
  br label %73

33:                                               ; preds = %28
  %34 = load double, ptr %7, align 8, !tbaa !74
  %35 = load ptr, ptr %10, align 8, !tbaa !8
  %36 = getelementptr inbounds nuw %struct.IDAMemRec, ptr %35, i32 0, i32 63
  store double %34, ptr %36, align 8, !tbaa !83
  %37 = load ptr, ptr %8, align 8, !tbaa !75
  %38 = load ptr, ptr %10, align 8, !tbaa !8
  %39 = getelementptr inbounds nuw %struct.IDAMemRec, ptr %38, i32 0, i32 14
  %40 = getelementptr inbounds [6 x ptr], ptr %39, i64 0, i64 0
  %41 = load ptr, ptr %40, align 8, !tbaa !75
  call void @N_VScale(double noundef 1.000000e+00, ptr noundef %37, ptr noundef %41)
  %42 = load ptr, ptr %9, align 8, !tbaa !75
  %43 = load ptr, ptr %10, align 8, !tbaa !8
  %44 = getelementptr inbounds nuw %struct.IDAMemRec, ptr %43, i32 0, i32 14
  %45 = getelementptr inbounds [6 x ptr], ptr %44, i64 0, i64 1
  %46 = load ptr, ptr %45, align 8, !tbaa !75
  call void @N_VScale(double noundef 1.000000e+00, ptr noundef %42, ptr noundef %46)
  %47 = load ptr, ptr %10, align 8, !tbaa !8
  %48 = getelementptr inbounds nuw %struct.IDAMemRec, ptr %47, i32 0, i32 88
  store i64 0, ptr %48, align 8, !tbaa !91
  %49 = load ptr, ptr %10, align 8, !tbaa !8
  %50 = getelementptr inbounds nuw %struct.IDAMemRec, ptr %49, i32 0, i32 89
  store i64 0, ptr %50, align 8, !tbaa !92
  %51 = load ptr, ptr %10, align 8, !tbaa !8
  %52 = getelementptr inbounds nuw %struct.IDAMemRec, ptr %51, i32 0, i32 90
  store i64 0, ptr %52, align 8, !tbaa !93
  %53 = load ptr, ptr %10, align 8, !tbaa !8
  %54 = getelementptr inbounds nuw %struct.IDAMemRec, ptr %53, i32 0, i32 91
  store i64 0, ptr %54, align 8, !tbaa !94
  %55 = load ptr, ptr %10, align 8, !tbaa !8
  %56 = getelementptr inbounds nuw %struct.IDAMemRec, ptr %55, i32 0, i32 92
  store i64 0, ptr %56, align 8, !tbaa !95
  %57 = load ptr, ptr %10, align 8, !tbaa !8
  %58 = getelementptr inbounds nuw %struct.IDAMemRec, ptr %57, i32 0, i32 93
  store i64 0, ptr %58, align 8, !tbaa !96
  %59 = load ptr, ptr %10, align 8, !tbaa !8
  %60 = getelementptr inbounds nuw %struct.IDAMemRec, ptr %59, i32 0, i32 94
  store i64 0, ptr %60, align 8, !tbaa !97
  %61 = load ptr, ptr %10, align 8, !tbaa !8
  %62 = getelementptr inbounds nuw %struct.IDAMemRec, ptr %61, i32 0, i32 54
  store i32 0, ptr %62, align 4, !tbaa !98
  %63 = load ptr, ptr %10, align 8, !tbaa !8
  %64 = getelementptr inbounds nuw %struct.IDAMemRec, ptr %63, i32 0, i32 61
  store double 0.000000e+00, ptr %64, align 8, !tbaa !99
  %65 = load ptr, ptr %10, align 8, !tbaa !8
  %66 = getelementptr inbounds nuw %struct.IDAMemRec, ptr %65, i32 0, i32 99
  store double 1.000000e+00, ptr %66, align 8, !tbaa !100
  %67 = load ptr, ptr %10, align 8, !tbaa !8
  %68 = getelementptr inbounds nuw %struct.IDAMemRec, ptr %67, i32 0, i32 130
  store i64 0, ptr %68, align 8, !tbaa !101
  %69 = load ptr, ptr %10, align 8, !tbaa !8
  %70 = getelementptr inbounds nuw %struct.IDAMemRec, ptr %69, i32 0, i32 129
  store i32 0, ptr %70, align 4, !tbaa !102
  %71 = load ptr, ptr %10, align 8, !tbaa !8
  %72 = getelementptr inbounds nuw %struct.IDAMemRec, ptr %71, i32 0, i32 100
  store i32 0, ptr %72, align 8, !tbaa !113
  store i32 0, ptr %5, align 4
  store i32 1, ptr %11, align 4
  br label %73

73:                                               ; preds = %33, %31, %26, %21, %14
  call void @llvm.lifetime.end.p0(i64 8, ptr %10) #10
  %74 = load i32, ptr %5, align 4
  ret i32 %74
}