; Function Attrs: nounwind uwtable
define range(i32 -23, 1) i32 @IDAReInit(ptr noundef captures(address_is_null) %0, double noundef %1, ptr noundef %2, ptr noundef %3) local_unnamed_addr #0 {
  %5 = icmp eq ptr %0, null
  br i1 %5, label %6, label %7

6:                                                ; preds = %4
  tail call void (ptr, i32, i32, ptr, ptr, ptr, ...) @IDAProcessError(ptr noundef null, i32 noundef -20, i32 noundef 573, ptr noundef nonnull @__func__.IDAReInit, ptr noundef nonnull @.str, ptr noundef nonnull @.str.3)
  br label %31

7:                                                ; preds = %4
  %8 = getelementptr inbounds nuw i8, ptr %0, i64 976
  %9 = load i32, ptr %8, align 8, !tbaa !90
  %10 = icmp eq i32 %9, 0
  br i1 %10, label %11, label %12

11:                                               ; preds = %7
  tail call void (ptr, i32, i32, ptr, ptr, ptr, ...) @IDAProcessError(ptr noundef nonnull %0, i32 noundef -23, i32 noundef 584, ptr noundef nonnull @__func__.IDAReInit, ptr noundef nonnull @.str, ptr noundef nonnull @.str.9)
  br label %31

12:                                               ; preds = %7
  %13 = icmp eq ptr %2, null
  br i1 %13, label %14, label %15

14:                                               ; preds = %12
  tail call void (ptr, i32, i32, ptr, ptr, ptr, ...) @IDAProcessError(ptr noundef nonnull %0, i32 noundef -22, i32 noundef 594, ptr noundef nonnull @__func__.IDAReInit, ptr noundef nonnull @.str, ptr noundef nonnull @.str.4)
  br label %31

15:                                               ; preds = %12
  %16 = icmp eq ptr %3, null
  br i1 %16, label %17, label %18

17:                                               ; preds = %15
  tail call void (ptr, i32, i32, ptr, ptr, ptr, ...) @IDAProcessError(ptr noundef nonnull %0, i32 noundef -22, i32 noundef 602, ptr noundef nonnull @__func__.IDAReInit, ptr noundef nonnull @.str, ptr noundef nonnull @.str.5)
  br label %31

18:                                               ; preds = %15
  %19 = getelementptr inbounds nuw i8, ptr %0, i64 680
  store double %1, ptr %19, align 8, !tbaa !80
  %20 = getelementptr inbounds nuw i8, ptr %0, i64 96
  %21 = load ptr, ptr %20, align 8, !tbaa !78
  tail call void @N_VScale(double noundef 1.000000e+00, ptr noundef nonnull %2, ptr noundef %21) #13
  %22 = getelementptr inbounds nuw i8, ptr %0, i64 104
  %23 = load ptr, ptr %22, align 8, !tbaa !78
  tail call void @N_VScale(double noundef 1.000000e+00, ptr noundef nonnull %3, ptr noundef %23) #13
  %24 = getelementptr inbounds nuw i8, ptr %0, i64 864
  %25 = getelementptr inbounds nuw i8, ptr %0, i64 620
  store i32 0, ptr %25, align 4, !tbaa !82
  %26 = getelementptr inbounds nuw i8, ptr %0, i64 664
  store double 0.000000e+00, ptr %26, align 8, !tbaa !83
  %27 = getelementptr inbounds nuw i8, ptr %0, i64 952
  tail call void @llvm.memset.p0.i64(ptr noundef nonnull align 8 dereferenceable(56) %24, i8 0, i64 56, i1 false)
  store double 1.000000e+00, ptr %27, align 8, !tbaa !84
  %28 = getelementptr inbounds nuw i8, ptr %0, i64 1176
  store i64 0, ptr %28, align 8, !tbaa !97
  %29 = getelementptr inbounds nuw i8, ptr %0, i64 1172
  store i32 0, ptr %29, align 4, !tbaa !98
  %30 = getelementptr inbounds nuw i8, ptr %0, i64 960
  store i32 0, ptr %30, align 8, !tbaa !89
  br label %31

31:                                               ; preds = %18, %17, %14, %11, %6
  %.0 = phi i32 [ -20, %6 ], [ -23, %11 ], [ -22, %14 ], [ -22, %17 ], [ 0, %18 ]
  ret i32 %.0
}